
TWI-master.elf:     file format elf32-avr

Sections:
Idx Name          Size      VMA       LMA       File off  Algn
  0 .data         00000000  00800100  00800100  00000192  2**0
                  CONTENTS, ALLOC, LOAD, DATA
  1 .text         0000013e  00000000  00000000  00000054  2**1
                  CONTENTS, ALLOC, LOAD, READONLY, CODE
  2 .comment      00000030  00000000  00000000  00000192  2**0
                  CONTENTS, READONLY
  3 .note.gnu.avr.deviceinfo 00000040  00000000  00000000  000001c4  2**2
                  CONTENTS, READONLY
  4 .debug_aranges 00000098  00000000  00000000  00000204  2**0
                  CONTENTS, READONLY, DEBUGGING
  5 .debug_info   0000097c  00000000  00000000  0000029c  2**0
                  CONTENTS, READONLY, DEBUGGING
  6 .debug_abbrev 0000076b  00000000  00000000  00000c18  2**0
                  CONTENTS, READONLY, DEBUGGING
  7 .debug_line   000009ab  00000000  00000000  00001383  2**0
                  CONTENTS, READONLY, DEBUGGING
  8 .debug_frame  00000114  00000000  00000000  00001d30  2**2
                  CONTENTS, READONLY, DEBUGGING
  9 .debug_str    000074c8  00000000  00000000  00001e44  2**0
                  CONTENTS, READONLY, DEBUGGING
 10 .debug_loc    00000206  00000000  00000000  0000930c  2**0
                  CONTENTS, READONLY, DEBUGGING
 11 .debug_ranges 00000078  00000000  00000000  00009512  2**0
                  CONTENTS, READONLY, DEBUGGING
 12 .debug_macro  00000550  00000000  00000000  0000958a  2**0
                  CONTENTS, READONLY, DEBUGGING

Disassembly of section .text:

00000000 <__vectors>:
   0:	33 c0       	rjmp	.+102    	; 0x68 <__ctors_end>
   2:	00 00       	nop
   4:	44 c0       	rjmp	.+136    	; 0x8e <__bad_interrupt>
   6:	00 00       	nop
   8:	42 c0       	rjmp	.+132    	; 0x8e <__bad_interrupt>
   a:	00 00       	nop
   c:	40 c0       	rjmp	.+128    	; 0x8e <__bad_interrupt>
   e:	00 00       	nop
  10:	3e c0       	rjmp	.+124    	; 0x8e <__bad_interrupt>
  12:	00 00       	nop
  14:	3c c0       	rjmp	.+120    	; 0x8e <__bad_interrupt>
  16:	00 00       	nop
  18:	3a c0       	rjmp	.+116    	; 0x8e <__bad_interrupt>
  1a:	00 00       	nop
  1c:	38 c0       	rjmp	.+112    	; 0x8e <__bad_interrupt>
  1e:	00 00       	nop
  20:	36 c0       	rjmp	.+108    	; 0x8e <__bad_interrupt>
  22:	00 00       	nop
  24:	34 c0       	rjmp	.+104    	; 0x8e <__bad_interrupt>
  26:	00 00       	nop
  28:	32 c0       	rjmp	.+100    	; 0x8e <__bad_interrupt>
  2a:	00 00       	nop
  2c:	30 c0       	rjmp	.+96     	; 0x8e <__bad_interrupt>
  2e:	00 00       	nop
  30:	2e c0       	rjmp	.+92     	; 0x8e <__bad_interrupt>
  32:	00 00       	nop
  34:	2c c0       	rjmp	.+88     	; 0x8e <__bad_interrupt>
  36:	00 00       	nop
  38:	2a c0       	rjmp	.+84     	; 0x8e <__bad_interrupt>
  3a:	00 00       	nop
  3c:	28 c0       	rjmp	.+80     	; 0x8e <__bad_interrupt>
  3e:	00 00       	nop
  40:	26 c0       	rjmp	.+76     	; 0x8e <__bad_interrupt>
  42:	00 00       	nop
  44:	24 c0       	rjmp	.+72     	; 0x8e <__bad_interrupt>
  46:	00 00       	nop
  48:	22 c0       	rjmp	.+68     	; 0x8e <__bad_interrupt>
  4a:	00 00       	nop
  4c:	20 c0       	rjmp	.+64     	; 0x8e <__bad_interrupt>
  4e:	00 00       	nop
  50:	1e c0       	rjmp	.+60     	; 0x8e <__bad_interrupt>
  52:	00 00       	nop
  54:	1c c0       	rjmp	.+56     	; 0x8e <__bad_interrupt>
  56:	00 00       	nop
  58:	1a c0       	rjmp	.+52     	; 0x8e <__bad_interrupt>
  5a:	00 00       	nop
  5c:	18 c0       	rjmp	.+48     	; 0x8e <__bad_interrupt>
  5e:	00 00       	nop
  60:	16 c0       	rjmp	.+44     	; 0x8e <__bad_interrupt>
  62:	00 00       	nop
  64:	14 c0       	rjmp	.+40     	; 0x8e <__bad_interrupt>
	...

00000068 <__ctors_end>:
  68:	11 24       	eor	r1, r1
  6a:	1f be       	out	0x3f, r1	; 63
  6c:	cf ef       	ldi	r28, 0xFF	; 255
  6e:	d8 e0       	ldi	r29, 0x08	; 8
  70:	de bf       	out	0x3e, r29	; 62
  72:	cd bf       	out	0x3d, r28	; 61

00000074 <__do_copy_data>:
  74:	11 e0       	ldi	r17, 0x01	; 1
  76:	a0 e0       	ldi	r26, 0x00	; 0
  78:	b1 e0       	ldi	r27, 0x01	; 1
  7a:	ee e3       	ldi	r30, 0x3E	; 62
  7c:	f1 e0       	ldi	r31, 0x01	; 1
  7e:	02 c0       	rjmp	.+4      	; 0x84 <__do_copy_data+0x10>
  80:	05 90       	lpm	r0, Z+
  82:	0d 92       	st	X+, r0
  84:	a0 30       	cpi	r26, 0x00	; 0
  86:	b1 07       	cpc	r27, r17
  88:	d9 f7       	brne	.-10     	; 0x80 <__do_copy_data+0xc>
  8a:	53 d0       	rcall	.+166    	; 0x132 <main>
  8c:	56 c0       	rjmp	.+172    	; 0x13a <_exit>

0000008e <__bad_interrupt>:
  8e:	b8 cf       	rjmp	.-144    	; 0x0 <__vectors>

00000090 <i2c_init>:
*************************************************************************/
unsigned char i2c_rep_start(unsigned char address)
{
    return i2c_start( address );

}/* i2c_rep_start */
  90:	10 92 b9 00 	sts	0x00B9, r1	; 0x8000b9 <__TEXT_REGION_LENGTH__+0x7e00b9>
  94:	88 e4       	ldi	r24, 0x48	; 72
  96:	80 93 b8 00 	sts	0x00B8, r24	; 0x8000b8 <__TEXT_REGION_LENGTH__+0x7e00b8>
  9a:	08 95       	ret

0000009c <i2c_start>:
  9c:	94 ea       	ldi	r25, 0xA4	; 164
  9e:	90 93 bc 00 	sts	0x00BC, r25	; 0x8000bc <__TEXT_REGION_LENGTH__+0x7e00bc>
  a2:	ec eb       	ldi	r30, 0xBC	; 188
  a4:	f0 e0       	ldi	r31, 0x00	; 0
  a6:	90 81       	ld	r25, Z
  a8:	99 23       	and	r25, r25
  aa:	ec f7       	brge	.-6      	; 0xa6 <i2c_start+0xa>
  ac:	90 91 b9 00 	lds	r25, 0x00B9	; 0x8000b9 <__TEXT_REGION_LENGTH__+0x7e00b9>
  b0:	98 7f       	andi	r25, 0xF8	; 248
  b2:	98 30       	cpi	r25, 0x08	; 8
  b4:	11 f0       	breq	.+4      	; 0xba <i2c_start+0x1e>
  b6:	90 31       	cpi	r25, 0x10	; 16
  b8:	a1 f4       	brne	.+40     	; 0xe2 <i2c_start+0x46>
  ba:	80 93 bb 00 	sts	0x00BB, r24	; 0x8000bb <__TEXT_REGION_LENGTH__+0x7e00bb>
  be:	84 e8       	ldi	r24, 0x84	; 132
  c0:	80 93 bc 00 	sts	0x00BC, r24	; 0x8000bc <__TEXT_REGION_LENGTH__+0x7e00bc>
  c4:	ec eb       	ldi	r30, 0xBC	; 188
  c6:	f0 e0       	ldi	r31, 0x00	; 0
  c8:	80 81       	ld	r24, Z
  ca:	88 23       	and	r24, r24
  cc:	ec f7       	brge	.-6      	; 0xc8 <i2c_start+0x2c>
  ce:	90 91 b9 00 	lds	r25, 0x00B9	; 0x8000b9 <__TEXT_REGION_LENGTH__+0x7e00b9>
  d2:	98 7f       	andi	r25, 0xF8	; 248
  d4:	98 31       	cpi	r25, 0x18	; 24
  d6:	39 f0       	breq	.+14     	; 0xe6 <i2c_start+0x4a>
  d8:	81 e0       	ldi	r24, 0x01	; 1
  da:	90 34       	cpi	r25, 0x40	; 64
  dc:	29 f4       	brne	.+10     	; 0xe8 <i2c_start+0x4c>
  de:	80 e0       	ldi	r24, 0x00	; 0
  e0:	08 95       	ret
  e2:	81 e0       	ldi	r24, 0x01	; 1
  e4:	08 95       	ret
  e6:	80 e0       	ldi	r24, 0x00	; 0
  e8:	08 95       	ret

000000ea <i2c_stop>:
 Terminates the data transfer and releases the I2C bus
*************************************************************************/
void i2c_stop(void)
{
	/* send stop condition */
	TWCR = (1<<TWINT) | (1<<TWEN) | (1<<TWSTO);
  ea:	84 e9       	ldi	r24, 0x94	; 148
  ec:	80 93 bc 00 	sts	0x00BC, r24	; 0x8000bc <__TEXT_REGION_LENGTH__+0x7e00bc>
	
	// wait until stop condition is executed and bus released
	while(TWCR & (1<<TWSTO));
  f0:	ec eb       	ldi	r30, 0xBC	; 188
  f2:	f0 e0       	ldi	r31, 0x00	; 0
  f4:	80 81       	ld	r24, Z
  f6:	84 fd       	sbrc	r24, 4
  f8:	fd cf       	rjmp	.-6      	; 0xf4 <i2c_stop+0xa>

	}/* i2c_stop */
  fa:	08 95       	ret

000000fc <i2c_write>:
	 uint8_t   twst;
	 #if LCD_AVAIL
	 displayLCD_main(1, "TWCR_ST 1: ", TWCR, "NONE");
	 #endif
	 // send data to the previously addressed device
	 TWDR = data;
  fc:	80 93 bb 00 	sts	0x00BB, r24	; 0x8000bb <__TEXT_REGION_LENGTH__+0x7e00bb>
	 TWCR = (1<<TWINT) | (1<<TWEN);
 100:	84 e8       	ldi	r24, 0x84	; 132
 102:	80 93 bc 00 	sts	0x00BC, r24	; 0x8000bc <__TEXT_REGION_LENGTH__+0x7e00bc>

	 // wait until transmission completed
	 while(!(TWCR & (1<<TWINT)));
 106:	ec eb       	ldi	r30, 0xBC	; 188
 108:	f0 e0       	ldi	r31, 0x00	; 0
 10a:	80 81       	ld	r24, Z
 10c:	88 23       	and	r24, r24
 10e:	ec f7       	brge	.-6      	; 0x10a <i2c_write+0xe>
	 displayLCD_main(2, "TWSR_ST 1: ", TWSR, "NONE");
	 displayLCD_main(3, "TWDR to write: ", TWDR, "NONE");
	 #endif

	 // check value of TWI Status Register. Mask prescaler bits
	 twst = TW_STATUS & 0xF8;
 110:	90 91 b9 00 	lds	r25, 0x00B9	; 0x8000b9 <__TEXT_REGION_LENGTH__+0x7e00b9>
 114:	98 7f       	andi	r25, 0xF8	; 248
 116:	81 e0       	ldi	r24, 0x01	; 1
 118:	98 32       	cpi	r25, 0x28	; 40
 11a:	09 f4       	brne	.+2      	; 0x11e <i2c_write+0x22>
 11c:	80 e0       	ldi	r24, 0x00	; 0
	 if( twst != TW_MT_DATA_ACK) return 1;
	 return 0;

}/* i2c_write */
 11e:	08 95       	ret

00000120 <write_i2c>:
#include <compat/twi.h>
#include "I2C.h"


void write_i2c(unsigned char value)
{
 120:	cf 93       	push	r28
 122:	c8 2f       	mov	r28, r24
	unsigned char ret_wr = 0;
	i2c_start((I2C_DEVICE<<1)+I2C_WRITE);
 124:	8e e4       	ldi	r24, 0x4E	; 78
 126:	ba df       	rcall	.-140    	; 0x9c <i2c_start>
#if LCD_AVAIL
	displayLCD_main(4, "Start successful", NONE, "NONE");
#endif
	//_delay_ms(5000);
	ret_wr = i2c_write(value);
 128:	8c 2f       	mov	r24, r28
#if LCD_AVAIL
	displayLCD_main(4, "Write status: ", ret_wr, "NONE");
#endif
	//_delay_ms(5000);
	i2c_stop();
 12a:	e8 df       	rcall	.-48     	; 0xfc <i2c_write>
 12c:	de df       	rcall	.-68     	; 0xea <i2c_stop>
#if LCD_AVAIL
	displayLCD_main(4, "stop successful", NONE, "NONE");
#endif
}
 12e:	cf 91       	pop	r28
 130:	08 95       	ret

00000132 <main>:
#if LCD_AVAIL
	initLCD();		// LED initialization
#endif
	unsigned char data = 99;
	uint8_t i = 0;
	i2c_init();				// Initialize I2C
 132:	ae df       	rcall	.-164    	; 0x90 <i2c_init>
//	i2c_set_address();
	
	while (1)
	{
		i += 1;
		write_i2c(data);
 134:	83 e6       	ldi	r24, 0x63	; 99
 136:	f4 df       	rcall	.-24     	; 0x120 <write_i2c>
 138:	fd cf       	rjmp	.-6      	; 0x134 <main+0x2>

0000013a <_exit>:
 13a:	f8 94       	cli

0000013c <__stop_program>:
 13c:	ff cf       	rjmp	.-2      	; 0x13c <__stop_program>
